target datalayout = "e-m:e-p270:32:32-p271:32:32-p272:64:64-i64:64-i128:128-f80:128-n8:16:32:64-S128"
target triple = "x86_64-pc-linux-gnu"

%"class.metaspace::RootChunkArea" = type { ptr, ptr }
%"class.metaspace::Metachunk" = type { ptr, i64, i64, i8, i8, ptr, ptr, ptr, ptr, ptr }
%"class.metaspace::RootChunkAreaLUT" = type { ptr, i32, ptr }

@.str.11 = private unnamed_addr constant [11 x i8] c"0x%016lx: \00", align 1
@.str.12 = private unnamed_addr constant [27 x i8] c"ABCDEFGHIJKLMNOPQRSTUVWXYZ\00", align 1
@.str.13 = private unnamed_addr constant [27 x i8] c"abcdefghijklmnopqrstuvwxyz\00", align 1
@.str.14 = private unnamed_addr constant [3 x i8] c"%c\00", align 1
@.str.15 = private unnamed_addr constant [2 x i8] c"?\00", align 1
@.str.16 = private unnamed_addr constant [13 x i8] c" (no chunks)\00", align 1
@.str.17 = private unnamed_addr constant [5 x i8] c"%2d:\00", align 1

; Function Attrs: mustprogress nounwind uwtable
define linkonce_odr hidden noundef ptr @_ZNK9metaspace9Metachunk10next_in_vsEv(ptr noundef nonnull align 8 dereferenceable(72) %0) #1 comdat align 2 {
  %2 = alloca ptr, align 8
  store ptr %0, ptr %2, align 8
  %3 = load ptr, ptr %2, align 8
  %4 = getelementptr inbounds %"class.metaspace::Metachunk", ptr %3, i32 0, i32 9
  %5 = load ptr, ptr %4, align 8
  ret ptr %5
}

; Function Attrs: mustprogress nounwind uwtable
define linkonce_odr hidden noundef zeroext i1 @_ZNK9metaspace9Metachunk7is_freeEv(ptr noundef nonnull align 8 dereferenceable(72) %0) #1 comdat align 2 {
  %2 = alloca ptr, align 8
  store ptr %0, ptr %2, align 8
  %3 = load ptr, ptr %2, align 8
  %4 = getelementptr inbounds %"class.metaspace::Metachunk", ptr %3, i32 0, i32 4
  %5 = load i8, ptr %4, align 1
  %6 = icmp eq i8 %5, 0
  ret i1 %6
}

; Function Attrs: mustprogress nounwind uwtable
define linkonce_odr hidden noundef signext i8 @_ZNK9metaspace9Metachunk5levelEv(ptr noundef nonnull align 8 dereferenceable(72) %0) #1 comdat align 2 {
  %2 = alloca ptr, align 8
  store ptr %0, ptr %2, align 8
  %3 = load ptr, ptr %2, align 8
  %4 = getelementptr inbounds %"class.metaspace::Metachunk", ptr %3, i32 0, i32 3
  %5 = load i8, ptr %4, align 8
  ret i8 %5
}

; Function Attrs: mustprogress nounwind uwtable
define linkonce_odr hidden noundef i64 @_Z3p2iPVKv(ptr noundef %0) #1 comdat {
  %2 = alloca ptr, align 8
  store ptr %0, ptr %2, align 8
  %3 = load ptr, ptr %2, align 8
  %4 = ptrtoint ptr %3 to i64
  ret i64 %4
}

; Function Attrs: mustprogress nounwind uwtable
define linkonce_odr hidden noundef ptr @_ZNK9metaspace13RootChunkArea4baseEv(ptr noundef nonnull align 8 dereferenceable(16) %0) #1 comdat align 2 {
  %2 = alloca ptr, align 8
  store ptr %0, ptr %2, align 8
  %3 = load ptr, ptr %2, align 8
  %4 = getelementptr inbounds %"class.metaspace::RootChunkArea", ptr %3, i32 0, i32 0
  %5 = load ptr, ptr %4, align 8
  ret ptr %5
}

; Function Attrs: mustprogress nounwind uwtable
define hidden void @_ZNK9metaspace13RootChunkArea8print_onEP12outputStream(ptr noundef nonnull align 8 dereferenceable(16) %0, ptr noundef %1) #1 align 2 {
  %3 = alloca ptr, align 8
  %4 = alloca ptr, align 8
  %5 = alloca ptr, align 8
  %6 = alloca ptr, align 8
  %7 = alloca ptr, align 8
  %8 = alloca i8, align 1
  store ptr %0, ptr %3, align 8
  store ptr %1, ptr %4, align 8
  %9 = load ptr, ptr %3, align 8
  %10 = load ptr, ptr %4, align 8
  %11 = call noundef ptr @_ZNK9metaspace13RootChunkArea4baseEv(ptr noundef nonnull align 8 dereferenceable(16) %9)
  %12 = call noundef i64 @_Z3p2iPVKv(ptr noundef %11)
  call void (ptr, ptr, ...) @_ZN12outputStream5printEPKcz(ptr noundef nonnull align 8 dereferenceable(56) %10, ptr noundef @.str.11, i64 noundef %12)
  %13 = getelementptr inbounds %"class.metaspace::RootChunkArea", ptr %9, i32 0, i32 1
  %14 = load ptr, ptr %13, align 8
  %15 = icmp ne ptr %14, null
  br i1 %15, label %16, label %61

16:                                               ; preds = %2
  %17 = getelementptr inbounds %"class.metaspace::RootChunkArea", ptr %9, i32 0, i32 1
  %18 = load ptr, ptr %17, align 8
  store ptr %18, ptr %5, align 8
  store ptr @.str.12, ptr %6, align 8
  store ptr @.str.13, ptr %7, align 8
  br label %19

19:                                               ; preds = %57, %16
  %20 = load ptr, ptr %5, align 8
  %21 = icmp ne ptr %20, null
  br i1 %21, label %22, label %60

22:                                               ; preds = %19
  %23 = load ptr, ptr %5, align 8
  %24 = call noundef signext i8 @_ZNK9metaspace9Metachunk5levelEv(ptr noundef nonnull align 8 dereferenceable(72) %23)
  store i8 %24, ptr %8, align 1
  %25 = load i8, ptr %8, align 1
  %26 = sext i8 %25 to i32
  %27 = icmp sge i32 %26, 0
  br i1 %27, label %28, label %55

28:                                               ; preds = %22
  %29 = load i8, ptr %8, align 1
  %30 = sext i8 %29 to i64
  %31 = load ptr, ptr %7, align 8
  %32 = call i64 @strlen(ptr noundef %31) #5
  %33 = icmp ult i64 %30, %32
  br i1 %33, label %34, label %55

34:                                               ; preds = %28
  %35 = load ptr, ptr %4, align 8
  %36 = load ptr, ptr %5, align 8
  %37 = call noundef zeroext i1 @_ZNK9metaspace9Metachunk7is_freeEv(ptr noundef nonnull align 8 dereferenceable(72) %36)
  br i1 %37, label %38, label %45

38:                                               ; preds = %34
  %39 = load ptr, ptr %7, align 8
  %40 = load ptr, ptr %5, align 8
  %41 = call noundef signext i8 @_ZNK9metaspace9Metachunk5levelEv(ptr noundef nonnull align 8 dereferenceable(72) %40)
  %42 = sext i8 %41 to i64
  %43 = getelementptr inbounds i8, ptr %39, i64 %42
  %44 = load i8, ptr %43, align 1
  br label %52

45:                                               ; preds = %34
  %46 = load ptr, ptr %6, align 8
  %47 = load ptr, ptr %5, align 8
  %48 = call noundef signext i8 @_ZNK9metaspace9Metachunk5levelEv(ptr noundef nonnull align 8 dereferenceable(72) %47)
  %49 = sext i8 %48 to i64
  %50 = getelementptr inbounds i8, ptr %46, i64 %49
  %51 = load i8, ptr %50, align 1
  br label %52

52:                                               ; preds = %45, %38
  %53 = phi i8 [ %44, %38 ], [ %51, %45 ]
  %54 = sext i8 %53 to i32
  call void (ptr, ptr, ...) @_ZN12outputStream5printEPKcz(ptr noundef nonnull align 8 dereferenceable(56) %35, ptr noundef @.str.14, i32 noundef %54)
  br label %57

55:                                               ; preds = %28, %22
  %56 = load ptr, ptr %4, align 8
  call void (ptr, ptr, ...) @_ZN12outputStream5printEPKcz(ptr noundef nonnull align 8 dereferenceable(56) %56, ptr noundef @.str.15)
  br label %57

57:                                               ; preds = %55, %52
  %58 = load ptr, ptr %5, align 8
  %59 = call noundef ptr @_ZNK9metaspace9Metachunk10next_in_vsEv(ptr noundef nonnull align 8 dereferenceable(72) %58)
  store ptr %59, ptr %5, align 8
  br label %19, !llvm.loop !9

60:                                               ; preds = %19
  br label %63

61:                                               ; preds = %2
  %62 = load ptr, ptr %4, align 8
  call void (ptr, ptr, ...) @_ZN12outputStream5printEPKcz(ptr noundef nonnull align 8 dereferenceable(56) %62, ptr noundef @.str.16)
  br label %63

63:                                               ; preds = %61, %60
  %64 = load ptr, ptr %4, align 8
  call void @_ZN12outputStream2crEv(ptr noundef nonnull align 8 dereferenceable(56) %64)
  ret void
}

; Function Attrs: mustprogress nounwind uwtable
define hidden void @_ZNK9metaspace16RootChunkAreaLUT8print_onEP12outputStream(ptr noundef nonnull align 8 dereferenceable(24) %0, ptr noundef %1) #1 align 2 {
  %3 = alloca ptr, align 8
  %4 = alloca ptr, align 8
  %5 = alloca i32, align 4
  store ptr %0, ptr %3, align 8
  store ptr %1, ptr %4, align 8
  %6 = load ptr, ptr %3, align 8
  store i32 0, ptr %5, align 4
  br label %7

7:                                                ; preds = %21, %2
  %8 = load i32, ptr %5, align 4
  %9 = getelementptr inbounds %"class.metaspace::RootChunkAreaLUT", ptr %6, i32 0, i32 1
  %10 = load i32, ptr %9, align 8
  %11 = icmp slt i32 %8, %10
  br i1 %11, label %12, label %24

12:                                               ; preds = %7
  %13 = load ptr, ptr %4, align 8
  %14 = load i32, ptr %5, align 4
  call void (ptr, ptr, ...) @_ZN12outputStream5printEPKcz(ptr noundef nonnull align 8 dereferenceable(56) %13, ptr noundef @.str.17, i32 noundef %14)
  %15 = getelementptr inbounds %"class.metaspace::RootChunkAreaLUT", ptr %6, i32 0, i32 2
  %16 = load ptr, ptr %15, align 8
  %17 = load i32, ptr %5, align 4
  %18 = sext i32 %17 to i64
  %19 = getelementptr inbounds %"class.metaspace::RootChunkArea", ptr %16, i64 %18
  %20 = load ptr, ptr %4, align 8
  call void @_ZNK9metaspace13RootChunkArea8print_onEP12outputStream(ptr noundef nonnull align 8 dereferenceable(16) %19, ptr noundef %20)
  br label %21

21:                                               ; preds = %12
  %22 = load i32, ptr %5, align 4
  %23 = add nsw i32 %22, 1
  store i32 %23, ptr %5, align 4
  br label %7, !llvm.loop !12

24:                                               ; preds = %7
  ret void
}