; Function Attrs: mustprogress nounwind uwtable
define hidden void @_ZNK9metaspace16RootChunkAreaLUT8print_onEP12outputStream(ptr nocapture noundef nonnull readonly align 8 dereferenceable(24) %0, ptr noundef %1) local_unnamed_addr #2 align 2 {
  %3 = getelementptr inbounds i8, ptr %0, i64 8
  %4 = load i32, ptr %3, align 8
  %5 = icmp sgt i32 %4, 0
  br i1 %5, label %.lr.ph, label %._crit_edge

.lr.ph:                                           ; preds = %2
  %6 = getelementptr inbounds i8, ptr %0, i64 16
  br label %7

7:                                                ; preds = %.lr.ph, %_ZNK9metaspace13RootChunkArea8print_onEP12outputStream.exit
  %indvars.iv = phi i64 [ 0, %.lr.ph ], [ %indvars.iv.next, %_ZNK9metaspace13RootChunkArea8print_onEP12outputStream.exit ]
  %8 = trunc nuw nsw i64 %indvars.iv to i32
  tail call void (ptr, ptr, ...) @_ZN12outputStream5printEPKcz(ptr noundef nonnull align 8 dereferenceable(56) %1, ptr noundef nonnull @.str.17, i32 noundef %8) #8
  %9 = load ptr, ptr %6, align 8
  %10 = getelementptr inbounds %"class.metaspace::RootChunkArea", ptr %9, i64 %indvars.iv
  %11 = load ptr, ptr %10, align 8
  %12 = ptrtoint ptr %11 to i64
  tail call void (ptr, ptr, ...) @_ZN12outputStream5printEPKcz(ptr noundef nonnull align 8 dereferenceable(56) %1, ptr noundef nonnull @.str.11, i64 noundef %12) #8
  %13 = getelementptr inbounds i8, ptr %10, i64 8
  %14 = load ptr, ptr %13, align 8
  %.not.i = icmp eq ptr %14, null
  br i1 %.not.i, label %29, label %.preheader.i

.preheader.i:                                     ; preds = %7, %26
  %.018.i = phi ptr [ %28, %26 ], [ %14, %7 ]
  %15 = getelementptr inbounds i8, ptr %.018.i, i64 24
  %16 = load i8, ptr %15, align 8
  %17 = icmp ult i8 %16, 26
  br i1 %17, label %18, label %25

18:                                               ; preds = %.preheader.i
  %19 = getelementptr inbounds i8, ptr %.018.i, i64 25
  %20 = load i8, ptr %19, align 1
  %21 = icmp eq i8 %20, 0
  %22 = zext nneg i8 %16 to i64
  %.in.v.i = select i1 %21, ptr @.str.13, ptr @.str.12
  %.in.i = getelementptr inbounds i8, ptr %.in.v.i, i64 %22
  %23 = load i8, ptr %.in.i, align 1
  %24 = sext i8 %23 to i32
  tail call void (ptr, ptr, ...) @_ZN12outputStream5printEPKcz(ptr noundef nonnull align 8 dereferenceable(56) %1, ptr noundef nonnull @.str.14, i32 noundef %24) #8
  br label %26

25:                                               ; preds = %.preheader.i
  tail call void (ptr, ptr, ...) @_ZN12outputStream5printEPKcz(ptr noundef nonnull align 8 dereferenceable(56) %1, ptr noundef nonnull @.str.15) #8
  br label %26

26:                                               ; preds = %25, %18
  %27 = getelementptr inbounds i8, ptr %.018.i, i64 64
  %28 = load ptr, ptr %27, align 8
  %.not17.i = icmp eq ptr %28, null
  br i1 %.not17.i, label %_ZNK9metaspace13RootChunkArea8print_onEP12outputStream.exit, label %.preheader.i, !llvm.loop !9

29:                                               ; preds = %7
  tail call void (ptr, ptr, ...) @_ZN12outputStream5printEPKcz(ptr noundef nonnull align 8 dereferenceable(56) %1, ptr noundef nonnull @.str.16) #8
  br label %_ZNK9metaspace13RootChunkArea8print_onEP12outputStream.exit

_ZNK9metaspace13RootChunkArea8print_onEP12outputStream.exit: ; preds = %26, %29
  tail call void @_ZN12outputStream2crEv(ptr noundef nonnull align 8 dereferenceable(56) %1) #8
  %indvars.iv.next = add nuw nsw i64 %indvars.iv, 1
  %30 = load i32, ptr %3, align 8
  %31 = sext i32 %30 to i64
  %32 = icmp slt i64 %indvars.iv.next, %31
  br i1 %32, label %7, label %._crit_edge, !llvm.loop !12

._crit_edge:                                      ; preds = %_ZNK9metaspace13RootChunkArea8print_onEP12outputStream.exit, %2
  ret void
}